target datalayout = "e-m:e-p270:32:32-p271:32:32-p272:64:64-i64:64-i128:128-f80:128-n8:16:32:64-S128"
target triple = "x86_64-unknown-linux-gnu"

@zmalloc_oom_handler = internal global ptr @zmalloc_default_oom, align 8

; Function Attrs: nounwind allocsize(1) uwtable
define dso_local ptr @zrealloc(ptr noundef %ptr, i64 noundef %size) #2 {
entry:
  %ptr.addr = alloca ptr, align 8
  %size.addr = alloca i64, align 8
  store ptr %ptr, ptr %ptr.addr, align 8
  store i64 %size, ptr %size.addr, align 8
  %0 = load ptr, ptr %ptr.addr, align 8
  %1 = load i64, ptr %size.addr, align 8
  %call = call ptr @ztryrealloc_usable_internal(ptr noundef %0, i64 noundef %1, ptr noundef null)
  store ptr %call, ptr %ptr.addr, align 8
  %2 = load ptr, ptr %ptr.addr, align 8
  %tobool = icmp ne ptr %2, null
  br i1 %tobool, label %if.end, label %land.lhs.true

land.lhs.true:                                    ; preds = %entry
  %3 = load i64, ptr %size.addr, align 8
  %cmp = icmp ne i64 %3, 0
  br i1 %cmp, label %if.then, label %if.end

if.then:                                          ; preds = %land.lhs.true
  %4 = load ptr, ptr @zmalloc_oom_handler, align 8
  %5 = load i64, ptr %size.addr, align 8
  call void %4(i64 noundef %5)
  br label %if.end

if.end:                                           ; preds = %if.then, %land.lhs.true, %entry
  %6 = load ptr, ptr %ptr.addr, align 8
  ret ptr %6
}