; Function Attrs: nounwind allocsize(1) uwtable
define dso_local ptr @zrealloc(ptr noundef %ptr, i64 noundef %size) local_unnamed_addr #8 {
entry:
  %call = tail call fastcc ptr @ztryrealloc_usable_internal(ptr noundef %ptr, i64 noundef %size, ptr noundef null)
  %tobool = icmp eq ptr %call, null
  %cmp = icmp ne i64 %size, 0
  %or.cond = and i1 %cmp, %tobool
  br i1 %or.cond, label %if.then, label %if.end

if.then:                                          ; preds = %entry
  %0 = load ptr, ptr @zmalloc_oom_handler, align 8
  tail call void %0(i64 noundef %size) #24
  br label %if.end

if.end:                                           ; preds = %if.then, %entry
  ret ptr %call
}